; Function Attrs: mustprogress nounwind uwtable
define hidden void @_ZN16G1ConcurrentMark24enter_first_sync_barrierEj(ptr noundef nonnull align 8 dereferenceable(1849) %0, i32 noundef %1) local_unnamed_addr #0 align 2 {
  %3 = getelementptr inbounds i8, ptr %0, i64 1493
  %4 = load volatile i8, ptr %3, align 1
  %5 = trunc i8 %4 to i1
  br i1 %5, label %8, label %_ZN26SuspendibleThreadSetLeaverC2Eb.exit

_ZN26SuspendibleThreadSetLeaverC2Eb.exit:         ; preds = %2
  %6 = getelementptr inbounds i8, ptr %0, i64 1248
  %7 = tail call noundef zeroext i1 @_ZN24WorkerThreadsBarrierSync5enterEv(ptr noundef nonnull align 8 dereferenceable(114) %6) #22
  br label %_ZN26SuspendibleThreadSetLeaverD2Ev.exit

8:                                                ; preds = %2
  tail call void @_ZN20SuspendibleThreadSet5leaveEv() #22
  %9 = getelementptr inbounds i8, ptr %0, i64 1248
  %10 = tail call noundef zeroext i1 @_ZN24WorkerThreadsBarrierSync5enterEv(ptr noundef nonnull align 8 dereferenceable(114) %9) #22
  tail call void @_ZN20SuspendibleThreadSet4joinEv() #22
  br label %_ZN26SuspendibleThreadSetLeaverD2Ev.exit

_ZN26SuspendibleThreadSetLeaverD2Ev.exit:         ; preds = %_ZN26SuspendibleThreadSetLeaverC2Eb.exit, %8
  ret void
}